; Function Attrs: mustprogress uwtable
define noundef i32 @zmq_socket_get_peer_state(ptr noundef %0, ptr noundef %1, i64 noundef %2) local_unnamed_addr #1 {
  %.not.i = icmp eq ptr %0, null
  br i1 %.not.i, label %_ZL16as_socket_base_tPv.exit.thread, label %4

4:                                                ; preds = %3
  %5 = tail call noundef zeroext i1 @_ZNK3zmq13socket_base_t9check_tagEv(ptr noundef nonnull align 8 dereferenceable(1825) %0)
  br i1 %5, label %_ZL16as_socket_base_tPv.exit, label %_ZL16as_socket_base_tPv.exit.thread

_ZL16as_socket_base_tPv.exit.thread:              ; preds = %3, %4
  %6 = tail call ptr @__errno_location() #20
  store i32 88, ptr %6, align 4, !tbaa !3
  br label %11

_ZL16as_socket_base_tPv.exit:                     ; preds = %4
  %7 = load ptr, ptr %0, align 8, !tbaa !77
  %8 = getelementptr inbounds nuw i8, ptr %7, i64 248
  %9 = load ptr, ptr %8, align 8
  %10 = tail call noundef i32 %9(ptr noundef nonnull align 8 dereferenceable(1825) %0, ptr noundef %1, i64 noundef %2)
  br label %11

11:                                               ; preds = %_ZL16as_socket_base_tPv.exit.thread, %_ZL16as_socket_base_tPv.exit
  %.0 = phi i32 [ %10, %_ZL16as_socket_base_tPv.exit ], [ -1, %_ZL16as_socket_base_tPv.exit.thread ]
  ret i32 %.0
}